target datalayout = "e-m:e-p270:32:32-p271:32:32-p272:64:64-i64:64-i128:128-f80:128-n8:16:32:64-S128"
target triple = "x86_64-pc-linux-gnu"

%"class.std::__cxx11::basic_string" = type { %"struct.std::__cxx11::basic_string<char>::_Alloc_hider", i64, %union.anon }
%"struct.std::__cxx11::basic_string<char>::_Alloc_hider" = type { ptr }
%union.anon = type { i64, [8 x i8] }
%struct.stat = type { i64, i64, i64, i32, i32, i32, i32, i64, i64, i64, i64, %struct.timespec, %struct.timespec, %struct.timespec, [3 x i64] }
%struct.timespec = type { i64, i64 }

; Function Attrs: mustprogress nounwind uwtable
define available_externally noundef ptr @_ZNKSt7__cxx1112basic_stringIcSt11char_traitsIcESaIcEE7_M_dataEv(ptr noundef nonnull align 8 dereferenceable(32) %0) #4 align 2 {
  %2 = alloca ptr, align 8
  store ptr %0, ptr %2, align 8, !tbaa !28
  %3 = load ptr, ptr %2, align 8
  %4 = getelementptr inbounds nuw %"class.std::__cxx11::basic_string", ptr %3, i32 0, i32 0
  %5 = getelementptr inbounds nuw %"struct.std::__cxx11::basic_string<char>::_Alloc_hider", ptr %4, i32 0, i32 0
  %6 = load ptr, ptr %5, align 8, !tbaa !191
  ret ptr %6
}

; Function Attrs: mustprogress nounwind uwtable
define available_externally noundef ptr @_ZNKSt7__cxx1112basic_stringIcSt11char_traitsIcESaIcEE5c_strEv(ptr noundef nonnull align 8 dereferenceable(32) %0) #4 align 2 {
  %2 = alloca ptr, align 8
  store ptr %0, ptr %2, align 8, !tbaa !28
  %3 = load ptr, ptr %2, align 8
  %4 = call noundef ptr @_ZNKSt7__cxx1112basic_stringIcSt11char_traitsIcESaIcEE7_M_dataEv(ptr noundef nonnull align 8 dereferenceable(32) %3)
  ret ptr %4
}

; Function Attrs: mustprogress nounwind uwtable
define dso_local noundef zeroext i1 @_ZN5cmsys11SystemTools8SameFileERKNSt7__cxx1112basic_stringIcSt11char_traitsIcESaIcEEES8_(ptr noundef nonnull align 8 dereferenceable(32) %0, ptr noundef nonnull align 8 dereferenceable(32) %1) #4 align 2 {
  %3 = alloca i1, align 1
  %4 = alloca ptr, align 8
  %5 = alloca ptr, align 8
  %6 = alloca %struct.stat, align 8
  %7 = alloca %struct.stat, align 8
  %8 = alloca i32, align 4
  store ptr %0, ptr %4, align 8, !tbaa !28
  store ptr %1, ptr %5, align 8, !tbaa !28
  call void @llvm.lifetime.start.p0(i64 144, ptr %6) #1
  call void @llvm.lifetime.start.p0(i64 144, ptr %7) #1
  %9 = load ptr, ptr %4, align 8, !tbaa !28
  %10 = call noundef ptr @_ZNKSt7__cxx1112basic_stringIcSt11char_traitsIcESaIcEE5c_strEv(ptr noundef nonnull align 8 dereferenceable(32) %9) #1
  %11 = call i32 @stat(ptr noundef %10, ptr noundef %6) #1
  %12 = icmp eq i32 %11, 0
  br i1 %12, label %13, label %36

13:                                               ; preds = %2
  %14 = load ptr, ptr %5, align 8, !tbaa !28
  %15 = call noundef ptr @_ZNKSt7__cxx1112basic_stringIcSt11char_traitsIcESaIcEE5c_strEv(ptr noundef nonnull align 8 dereferenceable(32) %14) #1
  %16 = call i32 @stat(ptr noundef %15, ptr noundef %7) #1
  %17 = icmp eq i32 %16, 0
  br i1 %17, label %18, label %36

18:                                               ; preds = %13
  %19 = getelementptr inbounds nuw %struct.stat, ptr %7, i32 0, i32 0
  %20 = getelementptr inbounds nuw %struct.stat, ptr %6, i32 0, i32 0
  %21 = call i32 @memcmp(ptr noundef %19, ptr noundef %20, i64 noundef 8) #24
  %22 = icmp eq i32 %21, 0
  br i1 %22, label %23, label %35

23:                                               ; preds = %18
  %24 = getelementptr inbounds nuw %struct.stat, ptr %7, i32 0, i32 1
  %25 = getelementptr inbounds nuw %struct.stat, ptr %6, i32 0, i32 1
  %26 = call i32 @memcmp(ptr noundef %24, ptr noundef %25, i64 noundef 8) #24
  %27 = icmp eq i32 %26, 0
  br i1 %27, label %28, label %35

28:                                               ; preds = %23
  %29 = getelementptr inbounds nuw %struct.stat, ptr %7, i32 0, i32 8
  %30 = load i64, ptr %29, align 8, !tbaa !70
  %31 = getelementptr inbounds nuw %struct.stat, ptr %6, i32 0, i32 8
  %32 = load i64, ptr %31, align 8, !tbaa !70
  %33 = icmp eq i64 %30, %32
  br i1 %33, label %34, label %35

34:                                               ; preds = %28
  store i1 true, ptr %3, align 1
  store i32 1, ptr %8, align 4
  br label %37

35:                                               ; preds = %28, %23, %18
  br label %36

36:                                               ; preds = %35, %13, %2
  store i1 false, ptr %3, align 1
  store i32 1, ptr %8, align 4
  br label %37

37:                                               ; preds = %36, %34
  call void @llvm.lifetime.end.p0(i64 144, ptr %7) #1
  call void @llvm.lifetime.end.p0(i64 144, ptr %6) #1
  %38 = load i1, ptr %3, align 1
  ret i1 %38
}