; Function Attrs: mustprogress nofree nounwind uwtable
define dso_local noundef zeroext i1 @_ZN5cmsys11SystemTools8SameFileERKNSt7__cxx1112basic_stringIcSt11char_traitsIcESaIcEEES8_(ptr noundef nonnull readonly align 8 captures(none) dereferenceable(32) %0, ptr noundef nonnull readonly align 8 captures(none) dereferenceable(32) %1) local_unnamed_addr #3 align 2 {
  %3 = alloca %struct.stat, align 8
  %4 = alloca %struct.stat, align 8
  call void @llvm.lifetime.start.p0(i64 144, ptr nonnull %3) #39
  call void @llvm.lifetime.start.p0(i64 144, ptr nonnull %4) #39
  %5 = load ptr, ptr %0, align 8, !tbaa !21
  %6 = call i32 @stat(ptr noundef %5, ptr noundef nonnull %3) #39
  %7 = icmp eq i32 %6, 0
  br i1 %7, label %8, label %22

8:                                                ; preds = %2
  %9 = load ptr, ptr %1, align 8, !tbaa !21
  %10 = call i32 @stat(ptr noundef %9, ptr noundef nonnull %4) #39
  %11 = icmp eq i32 %10, 0
  br i1 %11, label %12, label %22

12:                                               ; preds = %8
  %lhsv = load i64, ptr %4, align 8
  %rhsv = load i64, ptr %3, align 8
  %.not = icmp eq i64 %lhsv, %rhsv
  br i1 %.not, label %13, label %22

13:                                               ; preds = %12
  %14 = getelementptr inbounds nuw i8, ptr %4, i64 8
  %15 = getelementptr inbounds nuw i8, ptr %3, i64 8
  %lhsv3 = load i64, ptr %14, align 8
  %rhsv4 = load i64, ptr %15, align 8
  %.not5 = icmp eq i64 %lhsv3, %rhsv4
  br i1 %.not5, label %16, label %22

16:                                               ; preds = %13
  %17 = getelementptr inbounds nuw i8, ptr %4, i64 48
  %18 = load i64, ptr %17, align 8, !tbaa !52
  %19 = getelementptr inbounds nuw i8, ptr %3, i64 48
  %20 = load i64, ptr %19, align 8, !tbaa !52
  %21 = icmp eq i64 %18, %20
  br i1 %21, label %23, label %22

22:                                               ; preds = %12, %13, %16, %8, %2
  br label %23

23:                                               ; preds = %16, %22
  %.0 = phi i1 [ false, %22 ], [ true, %16 ]
  call void @llvm.lifetime.end.p0(i64 144, ptr nonnull %4) #39
  call void @llvm.lifetime.end.p0(i64 144, ptr nonnull %3) #39
  ret i1 %.0
}